; Function Attrs: nounwind uwtable
define ptr @l_Lean_Elab_addDeclarationRangesForBuiltin___at_Lean_Elab_Command_elabAxiom___spec__1(ptr noundef %0, ptr noundef %1, ptr noundef %2, ptr noundef %3, ptr noundef %4, ptr noundef %5, ptr noundef %6, ptr noundef %7, ptr noundef %8, ptr noundef %9) local_unnamed_addr #0 {
  %11 = ptrtoint ptr %2 to i64
  %12 = and i64 %11, 1
  %.not = icmp eq i64 %12, 0
  br i1 %.not, label %13, label %lean_inc.exit

13:                                               ; preds = %10
  %.val.i = load i32, ptr %2, align 4, !tbaa !4
  %14 = icmp sgt i32 %.val.i, 0
  br i1 %14, label %15, label %17, !prof !11

15:                                               ; preds = %13
  %16 = add nuw i32 %.val.i, 1
  store i32 %16, ptr %2, align 4, !tbaa !4
  br label %lean_inc.exit

17:                                               ; preds = %13
  %.not.i39 = icmp eq i32 %.val.i, 0
  br i1 %.not.i39, label %lean_inc.exit, label %18

18:                                               ; preds = %17
  tail call void @lean_inc_ref_cold(ptr noundef nonnull %2) #6
  br label %lean_inc.exit

lean_inc.exit:                                    ; preds = %18, %17, %15, %10
  %19 = tail call ptr @l_Lean_Syntax_getKind(ptr noundef %2) #6
  %20 = load ptr, ptr @l_Lean_Elab_addDeclarationRangesForBuiltin___at_Lean_Elab_Command_elabAxiom___spec__1___closed__2, align 8, !tbaa !9
  %21 = tail call zeroext i8 @lean_name_eq(ptr noundef %19, ptr noundef %20) #6
  %22 = ptrtoint ptr %19 to i64
  %23 = and i64 %22, 1
  %.not40 = icmp eq i64 %23, 0
  br i1 %.not40, label %24, label %lean_dec.exit30

24:                                               ; preds = %lean_inc.exit
  %25 = load i32, ptr %19, align 4, !tbaa !4
  %26 = icmp sgt i32 %25, 1
  br i1 %26, label %27, label %29, !prof !11

27:                                               ; preds = %24
  %28 = add nsw i32 %25, -1
  store i32 %28, ptr %19, align 4, !tbaa !4
  br label %lean_dec.exit30

29:                                               ; preds = %24
  %.not.i = icmp eq i32 %25, 0
  br i1 %.not.i, label %lean_dec.exit30, label %30

30:                                               ; preds = %29
  tail call void @lean_dec_ref_cold(ptr noundef nonnull %19) #6
  br label %lean_dec.exit30

lean_dec.exit30:                                  ; preds = %30, %29, %27, %lean_inc.exit
  %31 = icmp eq i8 %21, 0
  br i1 %31, label %32, label %34

32:                                               ; preds = %lean_dec.exit30
  %33 = tail call ptr @l_Lean_Elab_addDeclarationRangesForBuiltin___at_Lean_Elab_Command_elabAxiom___spec__1___lambda__1(ptr noundef %2, ptr noundef %1, ptr noundef %0, ptr nonnull poison, ptr noundef %3, ptr noundef %4, ptr noundef %5, ptr noundef %6, ptr noundef %7, ptr noundef %8, ptr noundef %9)
  br label %75

34:                                               ; preds = %lean_dec.exit30
  %35 = ptrtoint ptr %7 to i64
  %36 = and i64 %35, 1
  %.not41 = icmp eq i64 %36, 0
  br i1 %.not41, label %37, label %lean_dec.exit29

37:                                               ; preds = %34
  %38 = load i32, ptr %7, align 4, !tbaa !4
  %39 = icmp sgt i32 %38, 1
  br i1 %39, label %40, label %42, !prof !11

40:                                               ; preds = %37
  %41 = add nsw i32 %38, -1
  store i32 %41, ptr %7, align 4, !tbaa !4
  br label %lean_dec.exit29

42:                                               ; preds = %37
  %.not.i31 = icmp eq i32 %38, 0
  br i1 %.not.i31, label %lean_dec.exit29, label %43

43:                                               ; preds = %42
  tail call void @lean_dec_ref_cold(ptr noundef nonnull %7) #6
  br label %lean_dec.exit29

lean_dec.exit29:                                  ; preds = %43, %42, %40, %34
  br i1 %.not, label %44, label %lean_dec.exit28

44:                                               ; preds = %lean_dec.exit29
  %45 = load i32, ptr %2, align 4, !tbaa !4
  %46 = icmp sgt i32 %45, 1
  br i1 %46, label %47, label %49, !prof !11

47:                                               ; preds = %44
  %48 = add nsw i32 %45, -1
  store i32 %48, ptr %2, align 4, !tbaa !4
  br label %lean_dec.exit28

49:                                               ; preds = %44
  %.not.i33 = icmp eq i32 %45, 0
  br i1 %.not.i33, label %lean_dec.exit28, label %50

50:                                               ; preds = %49
  tail call void @lean_dec_ref_cold(ptr noundef nonnull %2) #6
  br label %lean_dec.exit28

lean_dec.exit28:                                  ; preds = %50, %49, %47, %lean_dec.exit29
  %51 = ptrtoint ptr %1 to i64
  %52 = and i64 %51, 1
  %.not42 = icmp eq i64 %52, 0
  br i1 %.not42, label %53, label %lean_dec.exit27

53:                                               ; preds = %lean_dec.exit28
  %54 = load i32, ptr %1, align 4, !tbaa !4
  %55 = icmp sgt i32 %54, 1
  br i1 %55, label %56, label %58, !prof !11

56:                                               ; preds = %53
  %57 = add nsw i32 %54, -1
  store i32 %57, ptr %1, align 4, !tbaa !4
  br label %lean_dec.exit27

58:                                               ; preds = %53
  %.not.i35 = icmp eq i32 %54, 0
  br i1 %.not.i35, label %lean_dec.exit27, label %59

59:                                               ; preds = %58
  tail call void @lean_dec_ref_cold(ptr noundef nonnull %1) #6
  br label %lean_dec.exit27

lean_dec.exit27:                                  ; preds = %59, %58, %56, %lean_dec.exit28
  %60 = ptrtoint ptr %0 to i64
  %61 = and i64 %60, 1
  %.not43 = icmp eq i64 %61, 0
  br i1 %.not43, label %62, label %lean_dec.exit

62:                                               ; preds = %lean_dec.exit27
  %63 = load i32, ptr %0, align 4, !tbaa !4
  %64 = icmp sgt i32 %63, 1
  br i1 %64, label %65, label %67, !prof !11

65:                                               ; preds = %62
  %66 = add nsw i32 %63, -1
  store i32 %66, ptr %0, align 4, !tbaa !4
  br label %lean_dec.exit

67:                                               ; preds = %62
  %.not.i37 = icmp eq i32 %63, 0
  br i1 %.not.i37, label %lean_dec.exit, label %68

68:                                               ; preds = %67
  tail call void @lean_dec_ref_cold(ptr noundef nonnull %0) #6
  br label %lean_dec.exit

lean_dec.exit:                                    ; preds = %68, %67, %65, %lean_dec.exit27
  tail call void @lean_inc_heartbeat() #6
  %69 = tail call noalias ptr @mi_malloc_small(i64 noundef 24) #6
  %70 = icmp eq ptr %69, null
  br i1 %70, label %71, label %lean_alloc_ctor.exit

71:                                               ; preds = %lean_dec.exit
  tail call void @lean_internal_panic_out_of_memory() #7
  unreachable

lean_alloc_ctor.exit:                             ; preds = %lean_dec.exit
  %72 = getelementptr inbounds nuw i8, ptr %69, i64 4
  store i32 1, ptr %69, align 4, !tbaa !4
  store i32 131096, ptr %72, align 4
  %73 = getelementptr inbounds nuw i8, ptr %69, i64 8
  store ptr inttoptr (i64 1 to ptr), ptr %73, align 8, !tbaa !9
  %74 = getelementptr inbounds nuw i8, ptr %69, i64 16
  store ptr %9, ptr %74, align 8, !tbaa !9
  br label %75

75:                                               ; preds = %lean_alloc_ctor.exit, %32
  %.0 = phi ptr [ %33, %32 ], [ %69, %lean_alloc_ctor.exit ]
  ret ptr %.0
}